target datalayout = "e-m:e-p270:32:32-p271:32:32-p272:64:64-i64:64-i128:128-f80:128-n8:16:32:64-S128"
target triple = "x86_64-pc-linux-gnu"

%"struct.arrow::internal::BitBlockCount" = type { i16, i16 }
%"class.arrow::internal::BitBlockCounter" = type { ptr, i64, i64 }

; Function Attrs: inlinehint mustprogress nounwind uwtable
define linkonce_odr noundef nonnull align 8 dereferenceable(8) ptr @_ZSt3minIlERKT_S2_S2_(ptr noundef nonnull align 8 dereferenceable(8) %0, ptr noundef nonnull align 8 dereferenceable(8) %1) #2 comdat {
  %3 = alloca ptr, align 8
  %4 = alloca ptr, align 8
  %5 = alloca ptr, align 8
  store ptr %0, ptr %4, align 8, !tbaa !20
  store ptr %1, ptr %5, align 8, !tbaa !20
  %6 = load ptr, ptr %5, align 8, !tbaa !20
  %7 = load i64, ptr %6, align 8, !tbaa !8
  %8 = load ptr, ptr %4, align 8, !tbaa !20
  %9 = load i64, ptr %8, align 8, !tbaa !8
  %10 = icmp slt i64 %7, %9
  br i1 %10, label %11, label %13

11:                                               ; preds = %2
  %12 = load ptr, ptr %5, align 8, !tbaa !20
  store ptr %12, ptr %3, align 8
  br label %15

13:                                               ; preds = %2
  %14 = load ptr, ptr %4, align 8, !tbaa !20
  store ptr %14, ptr %3, align 8
  br label %15

15:                                               ; preds = %13, %11
  %16 = load ptr, ptr %3, align 8
  ret ptr %16
}

; Function Attrs: mustprogress nounwind uwtable
define i32 @_ZN5arrow8internal15BitBlockCounter12GetBlockSlowEl(ptr noundef nonnull align 8 dereferenceable(24) %0, i64 noundef %1) #0 align 2 personality ptr @__gxx_personality_v0 {
  %3 = alloca %"struct.arrow::internal::BitBlockCount", align 2
  %4 = alloca ptr, align 8
  %5 = alloca i64, align 8
  %6 = alloca i16, align 2
  %7 = alloca i16, align 2
  store ptr %0, ptr %4, align 8, !tbaa !3
  store i64 %1, ptr %5, align 8, !tbaa !8
  %8 = load ptr, ptr %4, align 8
  call void @llvm.lifetime.start.p0(i64 2, ptr %6) #7
  %9 = getelementptr inbounds nuw %"class.arrow::internal::BitBlockCounter", ptr %8, i32 0, i32 1
  %10 = invoke noundef nonnull align 8 dereferenceable(8) ptr @_ZSt3minIlERKT_S2_S2_(ptr noundef nonnull align 8 dereferenceable(8) %9, ptr noundef nonnull align 8 dereferenceable(8) %5)
          to label %11 unwind label %40

11:                                               ; preds = %2
  %12 = load i64, ptr %10, align 8, !tbaa !8
  %13 = trunc i64 %12 to i16
  store i16 %13, ptr %6, align 2, !tbaa !10
  call void @llvm.lifetime.start.p0(i64 2, ptr %7) #7
  %14 = getelementptr inbounds nuw %"class.arrow::internal::BitBlockCounter", ptr %8, i32 0, i32 0
  %15 = load ptr, ptr %14, align 8, !tbaa !12
  %16 = getelementptr inbounds nuw %"class.arrow::internal::BitBlockCounter", ptr %8, i32 0, i32 2
  %17 = load i64, ptr %16, align 8, !tbaa !15
  %18 = load i16, ptr %6, align 2, !tbaa !10
  %19 = sext i16 %18 to i64
  %20 = invoke noundef i64 @_ZN5arrow8internal12CountSetBitsEPKhll(ptr noundef %15, i64 noundef %17, i64 noundef %19)
          to label %21 unwind label %40

21:                                               ; preds = %11
  %22 = trunc i64 %20 to i16
  store i16 %22, ptr %7, align 2, !tbaa !10
  %23 = load i16, ptr %6, align 2, !tbaa !10
  %24 = sext i16 %23 to i64
  %25 = getelementptr inbounds nuw %"class.arrow::internal::BitBlockCounter", ptr %8, i32 0, i32 1
  %26 = load i64, ptr %25, align 8, !tbaa !16
  %27 = sub nsw i64 %26, %24
  store i64 %27, ptr %25, align 8, !tbaa !16
  %28 = load i16, ptr %6, align 2, !tbaa !10
  %29 = sext i16 %28 to i32
  %30 = sdiv i32 %29, 8
  %31 = getelementptr inbounds nuw %"class.arrow::internal::BitBlockCounter", ptr %8, i32 0, i32 0
  %32 = load ptr, ptr %31, align 8, !tbaa !12
  %33 = sext i32 %30 to i64
  %34 = getelementptr inbounds i8, ptr %32, i64 %33
  store ptr %34, ptr %31, align 8, !tbaa !12
  %35 = getelementptr inbounds nuw %"struct.arrow::internal::BitBlockCount", ptr %3, i32 0, i32 0
  %36 = load i16, ptr %6, align 2, !tbaa !10
  store i16 %36, ptr %35, align 2, !tbaa !17
  %37 = getelementptr inbounds nuw %"struct.arrow::internal::BitBlockCount", ptr %3, i32 0, i32 1
  %38 = load i16, ptr %7, align 2, !tbaa !10
  store i16 %38, ptr %37, align 2, !tbaa !19
  call void @llvm.lifetime.end.p0(i64 2, ptr %7) #7
  call void @llvm.lifetime.end.p0(i64 2, ptr %6) #7
  %39 = load i32, ptr %3, align 2
  ret i32 %39

40:                                               ; preds = %11, %2
  %41 = landingpad { ptr, i32 }
          catch ptr null
  %42 = extractvalue { ptr, i32 } %41, 0
  call void @__clang_call_terminate(ptr %42) #8
  unreachable
}