; Function Attrs: mustprogress nounwind uwtable
define i32 @_ZN5arrow8internal15BitBlockCounter12GetBlockSlowEl(ptr noundef nonnull align 8 captures(none) dereferenceable(24) %0, i64 noundef %1) local_unnamed_addr #0 align 2 personality ptr @__gxx_personality_v0 {
  %3 = getelementptr inbounds nuw i8, ptr %0, i64 8
  %4 = load i64, ptr %3, align 8, !tbaa !3
  %.sroa.speculated = tail call i64 @llvm.smin.i64(i64 %1, i64 %4)
  %5 = load ptr, ptr %0, align 8, !tbaa !7
  %6 = getelementptr inbounds nuw i8, ptr %0, i64 16
  %7 = load i64, ptr %6, align 8, !tbaa !11
  %sext = shl i64 %.sroa.speculated, 48
  %8 = ashr exact i64 %sext, 48
  %9 = invoke noundef i64 @_ZN5arrow8internal12CountSetBitsEPKhll(ptr noundef %5, i64 noundef %7, i64 noundef %8)
          to label %10 unwind label %20

10:                                               ; preds = %2
  %11 = trunc i64 %.sroa.speculated to i16
  %12 = trunc i64 %9 to i32
  %13 = load i64, ptr %3, align 8, !tbaa !12
  %14 = sub nsw i64 %13, %8
  store i64 %14, ptr %3, align 8, !tbaa !12
  %15 = sdiv i16 %11, 8
  %16 = load ptr, ptr %0, align 8, !tbaa !7
  %17 = sext i16 %15 to i64
  %18 = getelementptr inbounds i8, ptr %16, i64 %17
  store ptr %18, ptr %0, align 8, !tbaa !7
  %.sroa.2.0.insert.ext = shl i32 %12, 16
  %19 = trunc i64 %.sroa.speculated to i32
  %.sroa.0.0.insert.ext = and i32 %19, 65535
  %.sroa.0.0.insert.insert = or disjoint i32 %.sroa.2.0.insert.ext, %.sroa.0.0.insert.ext
  ret i32 %.sroa.0.0.insert.insert

20:                                               ; preds = %2
  %21 = landingpad { ptr, i32 }
          catch ptr null
  %22 = extractvalue { ptr, i32 } %21, 0
  tail call void @__clang_call_terminate(ptr %22) #7
  unreachable
}